; Function Attrs: mustprogress nounwind uwtable
define void @_ZN7glslang14TParseVersions17explicitInt8CheckERKNS_10TSourceLocEPKcb(ptr noundef nonnull align 8 dereferenceable(224) %0, ptr noundef nonnull align 8 dereferenceable(24) %1, ptr noundef %2, i1 noundef zeroext %3) unnamed_addr #0 align 2 {
  %5 = alloca [2 x ptr], align 16
  br i1 %3, label %10, label %6

6:                                                ; preds = %4
  call void @llvm.memcpy.p0.p0.i64(ptr noundef nonnull align 16 dereferenceable(16) %5, ptr noundef nonnull align 16 dereferenceable(16) @__const._ZN7glslang14TParseVersions17explicitInt8CheckERKNS_10TSourceLocEPKcb.extensions, i64 16, i1 false)
  %7 = load ptr, ptr %0, align 8
  %8 = getelementptr inbounds i8, ptr %7, i64 40
  %9 = load ptr, ptr %8, align 8
  call void %9(ptr noundef nonnull align 8 dereferenceable(224) %0, ptr noundef nonnull align 8 dereferenceable(24) %1, i32 noundef 2, ptr noundef nonnull %5, ptr noundef %2) #15
  br label %10

10:                                               ; preds = %6, %4
  ret void
}